target datalayout = "e-m:e-p270:32:32-p271:32:32-p272:64:64-i64:64-i128:128-f80:128-n8:16:32:64-S128"
target triple = "x86_64-pc-linux-gnu"

%"class.std::set" = type { %"class.std::_Rb_tree" }
%"class.std::_Rb_tree" = type { %"struct.std::_Rb_tree<std::__cxx11::basic_string<char>, std::__cxx11::basic_string<char>, std::_Identity<std::__cxx11::basic_string<char>>, duckdb_re2::Prefilter::LengthThenLex>::_Rb_tree_impl" }
%"struct.std::_Rb_tree<std::__cxx11::basic_string<char>, std::__cxx11::basic_string<char>, std::_Identity<std::__cxx11::basic_string<char>>, duckdb_re2::Prefilter::LengthThenLex>::_Rb_tree_impl" = type { [8 x i8], %"struct.std::_Rb_tree_header" }
%"struct.std::_Rb_tree_header" = type { %"struct.std::_Rb_tree_node_base", i64 }
%"struct.std::_Rb_tree_node_base" = type { i32, ptr, ptr, ptr }
%"class.duckdb_re2::Prefilter::Info" = type { %"class.std::set", i8, ptr }

; Function Attrs: mustprogress uwtable
define hidden noundef ptr @_ZN10duckdb_re29Prefilter4Info9TakeMatchEv(ptr noundef nonnull align 8 dereferenceable(64) %0) #0 align 2 {
  %2 = alloca ptr, align 8
  %3 = alloca ptr, align 8
  store ptr %0, ptr %2, align 8, !tbaa !45
  %4 = load ptr, ptr %2, align 8
  %5 = getelementptr inbounds nuw %"class.duckdb_re2::Prefilter::Info", ptr %4, i32 0, i32 1
  %6 = load i8, ptr %5, align 8, !tbaa !47, !range !59, !noundef !60
  %7 = trunc i8 %6 to i1
  br i1 %7, label %8, label %13

8:                                                ; preds = %1
  %9 = getelementptr inbounds nuw %"class.duckdb_re2::Prefilter::Info", ptr %4, i32 0, i32 0
  %10 = call noundef ptr @_ZN10duckdb_re29Prefilter9OrStringsEPSt3setINSt7__cxx1112basic_stringIcSt11char_traitsIcESaIcEEENS0_13LengthThenLexESaIS7_EE(ptr noundef %9)
  %11 = getelementptr inbounds nuw %"class.duckdb_re2::Prefilter::Info", ptr %4, i32 0, i32 2
  store ptr %10, ptr %11, align 8, !tbaa !58
  %12 = getelementptr inbounds nuw %"class.duckdb_re2::Prefilter::Info", ptr %4, i32 0, i32 1
  store i8 0, ptr %12, align 8, !tbaa !47
  br label %13

13:                                               ; preds = %8, %1
  call void @llvm.lifetime.start.p0(i64 8, ptr %3) #18
  %14 = getelementptr inbounds nuw %"class.duckdb_re2::Prefilter::Info", ptr %4, i32 0, i32 2
  %15 = load ptr, ptr %14, align 8, !tbaa !58
  store ptr %15, ptr %3, align 8, !tbaa !3
  %16 = getelementptr inbounds nuw %"class.duckdb_re2::Prefilter::Info", ptr %4, i32 0, i32 2
  store ptr null, ptr %16, align 8, !tbaa !58
  %17 = load ptr, ptr %3, align 8, !tbaa !3
  call void @llvm.lifetime.end.p0(i64 8, ptr %3) #18
  ret ptr %17
}