; Function Attrs: mustprogress uwtable
define hidden noundef ptr @_ZN10duckdb_re29Prefilter4Info9TakeMatchEv(ptr noundef nonnull align 8 dereferenceable(64) %0) local_unnamed_addr #0 align 2 {
  %2 = getelementptr inbounds nuw i8, ptr %0, i64 48
  %3 = load i8, ptr %2, align 8, !tbaa !43, !range !52, !noundef !53
  %4 = trunc nuw i8 %3 to i1
  br i1 %4, label %5, label %._crit_edge

._crit_edge:                                      ; preds = %1
  %.phi.trans.insert = getelementptr inbounds nuw i8, ptr %0, i64 56
  %.pre = load ptr, ptr %.phi.trans.insert, align 8, !tbaa !51
  br label %7

5:                                                ; preds = %1
  %6 = tail call noundef ptr @_ZN10duckdb_re29Prefilter9OrStringsEPSt3setINSt7__cxx1112basic_stringIcSt11char_traitsIcESaIcEEENS0_13LengthThenLexESaIS7_EE(ptr noundef nonnull %0)
  store i8 0, ptr %2, align 8, !tbaa !43
  br label %7

7:                                                ; preds = %._crit_edge, %5
  %8 = phi ptr [ %.pre, %._crit_edge ], [ %6, %5 ]
  %9 = getelementptr inbounds nuw i8, ptr %0, i64 56
  store ptr null, ptr %9, align 8, !tbaa !51
  ret ptr %8
}